libKF5Blog.so.5:_ZN5KBlog10MetaWeblog11createMediaEPNS_9BlogMediaE
libKF5Blog.so.5:_ZN5KBlog10MetaWeblog11qt_metacallEN11QMetaObject4CallEiPPv
libKF5Blog.so.5:_ZN5KBlog10MetaWeblog11qt_metacastEPKc
libKF5Blog.so.5:_ZN5KBlog10MetaWeblog12createdMediaEPNS_9BlogMediaE
libKF5Blog.so.5:_ZN5KBlog10MetaWeblog14listCategoriesEv
libKF5Blog.so.5:_ZN5KBlog10MetaWeblog16listedCategoriesERK5QListI4QMapI7QStringS3_EE
libKF5Blog.so.5:_ZN5KBlog10MetaWeblogC1ERK4QUrlP7QObject
libKF5Blog.so.5:_ZN5KBlog10MetaWeblogC1ERK4QUrlRNS_17MetaWeblogPrivateEP7QObject
libKF5Blog.so.5:_ZN5KBlog10MetaWeblogC2ERK4QUrlP7QObject
libKF5Blog.so.5:_ZN5KBlog10MetaWeblogC2ERK4QUrlRNS_17MetaWeblogPrivateEP7QObject
libKF5Blog.so.5:_ZN5KBlog10MetaWeblogD0Ev
libKF5Blog.so.5:_ZN5KBlog10MetaWeblogD1Ev
libKF5Blog.so.5:_ZN5KBlog10MetaWeblogD2Ev
libKF5Blog.so.5:_ZN5KBlog11BlogComment10setContentERK7QString
libKF5Blog.so.5:_ZN5KBlog11BlogComment12setCommentIdERK7QString
libKF5Blog.so.5:_ZN5KBlog11BlogComment19setCreationDateTimeERK9QDateTime
libKF5Blog.so.5:_ZN5KBlog11BlogComment23setModificationDateTimeERK9QDateTime
libKF5Blog.so.5:_ZN5KBlog11BlogComment6setUrlERK4QUrl
libKF5Blog.so.5:_ZN5KBlog11BlogComment7setNameERK7QString
libKF5Blog.so.5:_ZN5KBlog11BlogComment8setEmailERK7QString
libKF5Blog.so.5:_ZN5KBlog11BlogComment8setErrorERK7QString
libKF5Blog.so.5:_ZN5KBlog11BlogComment8setTitleERK7QString
libKF5Blog.so.5:_ZN5KBlog11BlogComment9setStatusENS0_6StatusE
libKF5Blog.so.5:_ZN5KBlog11BlogCommentC1ERK7QString
libKF5Blog.so.5:_ZN5KBlog11BlogCommentC1ERKS0_
libKF5Blog.so.5:_ZN5KBlog11BlogCommentC2ERK7QString
libKF5Blog.so.5:_ZN5KBlog11BlogCommentC2ERKS0_
libKF5Blog.so.5:_ZN5KBlog11BlogCommentD0Ev
libKF5Blog.so.5:_ZN5KBlog11BlogCommentD1Ev
libKF5Blog.so.5:_ZN5KBlog11BlogCommentD2Ev
libKF5Blog.so.5:_ZN5KBlog11BlogCommentaSERKS0_
libKF5Blog.so.5:_ZN5KBlog11MovableType10createPostEPNS_8BlogPostE
libKF5Blog.so.5:_ZN5KBlog11MovableType10modifyPostEPNS_8BlogPostE
libKF5Blog.so.5:_ZN5KBlog11MovableType11qt_metacallEN11QMetaObject4CallEiPPv
libKF5Blog.so.5:_ZN5KBlog11MovableType11qt_metacastEPKc
libKF5Blog.so.5:_ZN5KBlog11MovableType15listRecentPostsEi
libKF5Blog.so.5:_ZN5KBlog11MovableType18listTrackBackPingsEPNS_8BlogPostE
libKF5Blog.so.5:_ZN5KBlog11MovableType20listedTrackBackPingsEPNS_8BlogPostERK5QListI4QMapI7QStringS5_EE
libKF5Blog.so.5:_ZN5KBlog11MovableType9fetchPostEPNS_8BlogPostE
libKF5Blog.so.5:_ZN5KBlog11MovableTypeC1ERK4QUrlP7QObject
libKF5Blog.so.5:_ZN5KBlog11MovableTypeC1ERK4QUrlRNS_18MovableTypePrivateEP7QObject
libKF5Blog.so.5:_ZN5KBlog11MovableTypeC2ERK4QUrlP7QObject
libKF5Blog.so.5:_ZN5KBlog11MovableTypeC2ERK4QUrlRNS_18MovableTypePrivateEP7QObject
libKF5Blog.so.5:_ZN5KBlog11MovableTypeD0Ev
libKF5Blog.so.5:_ZN5KBlog11MovableTypeD1Ev
libKF5Blog.so.5:_ZN5KBlog11MovableTypeD2Ev
libKF5Blog.so.5:_ZN5KBlog14WordpressBuggy10createPostEPNS_8BlogPostE
libKF5Blog.so.5:_ZN5KBlog14WordpressBuggy10modifyPostEPNS_8BlogPostE
libKF5Blog.so.5:_ZN5KBlog14WordpressBuggy11qt_metacallEN11QMetaObject4CallEiPPv
libKF5Blog.so.5:_ZN5KBlog14WordpressBuggy11qt_metacastEPKc
libKF5Blog.so.5:_ZN5KBlog14WordpressBuggyC1ERK4QUrlP7QObject
libKF5Blog.so.5:_ZN5KBlog14WordpressBuggyC1ERK4QUrlRNS_21WordpressBuggyPrivateEP7QObject
libKF5Blog.so.5:_ZN5KBlog14WordpressBuggyC2ERK4QUrlP7QObject
libKF5Blog.so.5:_ZN5KBlog14WordpressBuggyC2ERK4QUrlRNS_21WordpressBuggyPrivateEP7QObject
libKF5Blog.so.5:_ZN5KBlog14WordpressBuggyD0Ev
libKF5Blog.so.5:_ZN5KBlog14WordpressBuggyD1Ev
libKF5Blog.so.5:_ZN5KBlog14WordpressBuggyD2Ev
libKF5Blog.so.5:_ZN5KBlog4Blog10errorMediaENS0_9ErrorTypeERK7QStringPNS_9BlogMediaE
libKF5Blog.so.5:_ZN5KBlog4Blog11createdPostEPNS_8BlogPostE
libKF5Blog.so.5:_ZN5KBlog4Blog11fetchedPostEPNS_8BlogPostE
libKF5Blog.so.5:_ZN5KBlog4Blog11qt_metacallEN11QMetaObject4CallEiPPv
libKF5Blog.so.5:_ZN5KBlog4Blog11qt_metacastEPKc
libKF5Blog.so.5:_ZN5KBlog4Blog11removedPostEPNS_8BlogPostE
libKF5Blog.so.5:_ZN5KBlog4Blog11setPasswordERK7QString
libKF5Blog.so.5:_ZN5KBlog4Blog11setTimeZoneERK9QTimeZone
libKF5Blog.so.5:_ZN5KBlog4Blog11setUsernameERK7QString
libKF5Blog.so.5:_ZN5KBlog4Blog12errorCommentENS0_9ErrorTypeERK7QStringPNS_8BlogPostEPNS_11BlogCommentE
libKF5Blog.so.5:_ZN5KBlog4Blog12modifiedPostEPNS_8BlogPostE
libKF5Blog.so.5:_ZN5KBlog4Blog12setUserAgentERK7QStringS3_
libKF5Blog.so.5:_ZN5KBlog4Blog17listedRecentPostsERK5QListINS_8BlogPostEE
libKF5Blog.so.5:_ZN5KBlog4Blog5errorENS0_9ErrorTypeERK7QString
libKF5Blog.so.5:_ZN5KBlog4Blog6setUrlERK4QUrl
libKF5Blog.so.5:_ZN5KBlog4Blog8timeZoneEv
libKF5Blog.so.5:_ZN5KBlog4Blog9errorPostENS0_9ErrorTypeERK7QStringPNS_8BlogPostE
libKF5Blog.so.5:_ZN5KBlog4Blog9setBlogIdERK7QString
libKF5Blog.so.5:_ZN5KBlog4BlogC1ERK4QUrlP7QObjectRK7QStringS8_
libKF5Blog.so.5:_ZN5KBlog4BlogC1ERK4QUrlRNS_11BlogPrivateEP7QObjectRK7QStringSA_
libKF5Blog.so.5:_ZN5KBlog4BlogC2ERK4QUrlP7QObjectRK7QStringS8_
libKF5Blog.so.5:_ZN5KBlog4BlogC2ERK4QUrlRNS_11BlogPrivateEP7QObjectRK7QStringSA_
libKF5Blog.so.5:_ZN5KBlog4BlogD0Ev
libKF5Blog.so.5:_ZN5KBlog4BlogD1Ev
libKF5Blog.so.5:_ZN5KBlog4BlogD2Ev
libKF5Blog.so.5:_ZN5KBlog5GData10createPostEPNS_8BlogPostE
libKF5Blog.so.5:_ZN5KBlog5GData10modifyPostEPNS_8BlogPostE
libKF5Blog.so.5:_ZN5KBlog5GData10removePostEPNS_8BlogPostE
libKF5Blog.so.5:_ZN5KBlog5GData11listedBlogsERK5QListI4QMapI7QStringS3_EE
libKF5Blog.so.5:_ZN5KBlog5GData11qt_metacallEN11QMetaObject4CallEiPPv
libKF5Blog.so.5:_ZN5KBlog5GData11qt_metacastEPKc
libKF5Blog.so.5:_ZN5KBlog5GData11setFullNameERK7QString
libKF5Blog.so.5:_ZN5KBlog5GData12listCommentsEPNS_8BlogPostE
libKF5Blog.so.5:_ZN5KBlog5GData12setProfileIdERK7QString
libKF5Blog.so.5:_ZN5KBlog5GData13createCommentEPNS_8BlogPostEPNS_11BlogCommentE
libKF5Blog.so.5:_ZN5KBlog5GData13removeCommentEPNS_8BlogPostEPNS_11BlogCommentE
libKF5Blog.so.5:_ZN5KBlog5GData14createdCommentEPKNS_8BlogPostEPKNS_11BlogCommentE
libKF5Blog.so.5:_ZN5KBlog5GData14fetchProfileIdEv
libKF5Blog.so.5:_ZN5KBlog5GData14listedCommentsEPNS_8BlogPostERK5QListINS_11BlogCommentEE
libKF5Blog.so.5:_ZN5KBlog5GData14removedCommentEPKNS_8BlogPostEPKNS_11BlogCommentE
libKF5Blog.so.5:_ZN5KBlog5GData15listAllCommentsEv
libKF5Blog.so.5:_ZN5KBlog5GData15listRecentPostsERK11QStringListiRK9QDateTimeS6_S6_S6_
libKF5Blog.so.5:_ZN5KBlog5GData15listRecentPostsEi
libKF5Blog.so.5:_ZN5KBlog5GData16fetchedProfileIdERK7QString
libKF5Blog.so.5:_ZN5KBlog5GData17listedAllCommentsERK5QListINS_11BlogCommentEE
libKF5Blog.so.5:_ZN5KBlog5GData9fetchPostEPNS_8BlogPostE
libKF5Blog.so.5:_ZN5KBlog5GData9listBlogsEv
libKF5Blog.so.5:_ZN5KBlog5GDataC1ERK4QUrlP7QObject
libKF5Blog.so.5:_ZN5KBlog5GDataC2ERK4QUrlP7QObject
libKF5Blog.so.5:_ZN5KBlog5GDataD0Ev
libKF5Blog.so.5:_ZN5KBlog5GDataD1Ev
libKF5Blog.so.5:_ZN5KBlog5GDataD2Ev
libKF5Blog.so.5:_ZN5KBlog8BlogPost10setContentERK7QString
libKF5Blog.so.5:_ZN5KBlog8BlogPost10setPrivateEb
libKF5Blog.so.5:_ZN5KBlog8BlogPost10setSummaryERK7QString
libKF5Blog.so.5:_ZN5KBlog8BlogPost13setCategoriesERK11QStringList
libKF5Blog.so.5:_ZN5KBlog8BlogPost17setCommentAllowedEb
libKF5Blog.so.5:_ZN5KBlog8BlogPost19setCreationDateTimeERK9QDateTime
libKF5Blog.so.5:_ZN5KBlog8BlogPost19setTrackBackAllowedEb
libKF5Blog.so.5:_ZN5KBlog8BlogPost20setAdditionalContentERK7QString
libKF5Blog.so.5:_ZN5KBlog8BlogPost23setModificationDateTimeERK9QDateTime
libKF5Blog.so.5:_ZN5KBlog8BlogPost7setMoodERK7QString
libKF5Blog.so.5:_ZN5KBlog8BlogPost7setSlugERK7QString
libKF5Blog.so.5:_ZN5KBlog8BlogPost7setTagsERK11QStringList
libKF5Blog.so.5:_ZN5KBlog8BlogPost8setErrorERK7QString
libKF5Blog.so.5:_ZN5KBlog8BlogPost8setMusicERK7QString
libKF5Blog.so.5:_ZN5KBlog8BlogPost8setTitleERK7QString
libKF5Blog.so.5:_ZN5KBlog8BlogPost9setPostIdERK7QString
libKF5Blog.so.5:_ZN5KBlog8BlogPost9setStatusENS0_6StatusE
libKF5Blog.so.5:_ZN5KBlog8BlogPostC1ERK14QSharedPointerIN13KCalendarCore7JournalEE
libKF5Blog.so.5:_ZN5KBlog8BlogPostC1ERK7QString
libKF5Blog.so.5:_ZN5KBlog8BlogPostC1ERKS0_
libKF5Blog.so.5:_ZN5KBlog8BlogPostC2ERK14QSharedPointerIN13KCalendarCore7JournalEE
libKF5Blog.so.5:_ZN5KBlog8BlogPostC2ERK7QString
libKF5Blog.so.5:_ZN5KBlog8BlogPostC2ERKS0_
libKF5Blog.so.5:_ZN5KBlog8BlogPostD0Ev
libKF5Blog.so.5:_ZN5KBlog8BlogPostD1Ev
libKF5Blog.so.5:_ZN5KBlog8BlogPostD2Ev
libKF5Blog.so.5:_ZN5KBlog8BlogPostaSERKS0_
libKF5Blog.so.5:_ZN5KBlog8Blogger110createPostEPNS_8BlogPostE
libKF5Blog.so.5:_ZN5KBlog8Blogger110modifyPostEPNS_8BlogPostE
libKF5Blog.so.5:_ZN5KBlog8Blogger110removePostEPNS_8BlogPostE
libKF5Blog.so.5:_ZN5KBlog8Blogger111listedBlogsERK5QListI4QMapI7QStringS3_EE
libKF5Blog.so.5:_ZN5KBlog8Blogger111qt_metacallEN11QMetaObject4CallEiPPv
libKF5Blog.so.5:_ZN5KBlog8Blogger111qt_metacastEPKc
libKF5Blog.so.5:_ZN5KBlog8Blogger113fetchUserInfoEv
libKF5Blog.so.5:_ZN5KBlog8Blogger115fetchedUserInfoERK4QMapI7QStringS2_E
libKF5Blog.so.5:_ZN5KBlog8Blogger115listRecentPostsEi
libKF5Blog.so.5:_ZN5KBlog8Blogger16setUrlERK4QUrl
libKF5Blog.so.5:_ZN5KBlog8Blogger19fetchPostEPNS_8BlogPostE
libKF5Blog.so.5:_ZN5KBlog8Blogger19listBlogsEv
libKF5Blog.so.5:_ZN5KBlog8Blogger1C1ERK4QUrlP7QObject
libKF5Blog.so.5:_ZN5KBlog8Blogger1C1ERK4QUrlRNS_15Blogger1PrivateEP7QObject
libKF5Blog.so.5:_ZN5KBlog8Blogger1C2ERK4QUrlP7QObject
libKF5Blog.so.5:_ZN5KBlog8Blogger1C2ERK4QUrlRNS_15Blogger1PrivateEP7QObject
libKF5Blog.so.5:_ZN5KBlog8Blogger1D0Ev
libKF5Blog.so.5:_ZN5KBlog8Blogger1D1Ev
libKF5Blog.so.5:_ZN5KBlog8Blogger1D2Ev
libKF5Blog.so.5:_ZN5KBlog9BlogMedia11setMimetypeERK7QString
libKF5Blog.so.5:_ZN5KBlog9BlogMedia6setUrlERK4QUrl
libKF5Blog.so.5:_ZN5KBlog9BlogMedia7setDataERK10QByteArray
libKF5Blog.so.5:_ZN5KBlog9BlogMedia7setNameERK7QString
libKF5Blog.so.5:_ZN5KBlog9BlogMedia8setErrorERK7QString
libKF5Blog.so.5:_ZN5KBlog9BlogMedia9setStatusENS0_6StatusE
libKF5Blog.so.5:_ZN5KBlog9BlogMediaC1ERKS0_
libKF5Blog.so.5:_ZN5KBlog9BlogMediaC1Ev
libKF5Blog.so.5:_ZN5KBlog9BlogMediaC2ERKS0_
libKF5Blog.so.5:_ZN5KBlog9BlogMediaC2Ev
libKF5Blog.so.5:_ZN5KBlog9BlogMediaD0Ev
libKF5Blog.so.5:_ZN5KBlog9BlogMediaD1Ev
libKF5Blog.so.5:_ZN5KBlog9BlogMediaD2Ev
libKF5Blog.so.5:_ZN5KBlog9BlogMediaaSERKS0_
libKF5Blog.so.5:_ZNK5KBlog10MetaWeblog10metaObjectEv
libKF5Blog.so.5:_ZNK5KBlog10MetaWeblog13interfaceNameEv
libKF5Blog.so.5:_ZNK5KBlog11BlogComment16creationDateTimeEv
libKF5Blog.so.5:_ZNK5KBlog11BlogComment20modificationDateTimeEv
libKF5Blog.so.5:_ZNK5KBlog11BlogComment3urlEv
libKF5Blog.so.5:_ZNK5KBlog11BlogComment4nameEv
libKF5Blog.so.5:_ZNK5KBlog11BlogComment5emailEv
libKF5Blog.so.5:_ZNK5KBlog11BlogComment5errorEv
libKF5Blog.so.5:_ZNK5KBlog11BlogComment5titleEv
libKF5Blog.so.5:_ZNK5KBlog11BlogComment6statusEv
libKF5Blog.so.5:_ZNK5KBlog11BlogComment7contentEv
libKF5Blog.so.5:_ZNK5KBlog11BlogComment9commentIdEv
libKF5Blog.so.5:_ZNK5KBlog11MovableType10metaObjectEv
libKF5Blog.so.5:_ZNK5KBlog11MovableType13interfaceNameEv
libKF5Blog.so.5:_ZNK5KBlog14WordpressBuggy10metaObjectEv
libKF5Blog.so.5:_ZNK5KBlog14WordpressBuggy13interfaceNameEv
libKF5Blog.so.5:_ZNK5KBlog4Blog10metaObjectEv
libKF5Blog.so.5:_ZNK5KBlog4Blog3urlEv
libKF5Blog.so.5:_ZNK5KBlog4Blog6blogIdEv
libKF5Blog.so.5:_ZNK5KBlog4Blog8passwordEv
libKF5Blog.so.5:_ZNK5KBlog4Blog8usernameEv
libKF5Blog.so.5:_ZNK5KBlog4Blog9userAgentEv
libKF5Blog.so.5:_ZNK5KBlog5GData10metaObjectEv
libKF5Blog.so.5:_ZNK5KBlog5GData13interfaceNameEv
libKF5Blog.so.5:_ZNK5KBlog5GData8fullNameEv
libKF5Blog.so.5:_ZNK5KBlog5GData9profileIdEv
libKF5Blog.so.5:_ZNK5KBlog8BlogPost10categoriesEv
libKF5Blog.so.5:_ZNK5KBlog8BlogPost12setPermaLinkERK4QUrl
libKF5Blog.so.5:_ZNK5KBlog8BlogPost16creationDateTimeEv
libKF5Blog.so.5:_ZNK5KBlog8BlogPost16isCommentAllowedEv
libKF5Blog.so.5:_ZNK5KBlog8BlogPost17additionalContentEv
libKF5Blog.so.5:_ZNK5KBlog8BlogPost18isTrackBackAllowedEv
libKF5Blog.so.5:_ZNK5KBlog8BlogPost20modificationDateTimeEv
libKF5Blog.so.5:_ZNK5KBlog8BlogPost4linkEv
libKF5Blog.so.5:_ZNK5KBlog8BlogPost4moodEv
libKF5Blog.so.5:_ZNK5KBlog8BlogPost4slugEv
libKF5Blog.so.5:_ZNK5KBlog8BlogPost4tagsEv
libKF5Blog.so.5:_ZNK5KBlog8BlogPost5errorEv
libKF5Blog.so.5:_ZNK5KBlog8BlogPost5musicEv
libKF5Blog.so.5:_ZNK5KBlog8BlogPost5titleEv
libKF5Blog.so.5:_ZNK5KBlog8BlogPost6postIdEv
libKF5Blog.so.5:_ZNK5KBlog8BlogPost6statusEv
libKF5Blog.so.5:_ZNK5KBlog8BlogPost7contentEv
libKF5Blog.so.5:_ZNK5KBlog8BlogPost7journalERKNS_4BlogE
libKF5Blog.so.5:_ZNK5KBlog8BlogPost7setLinkERK4QUrl
libKF5Blog.so.5:_ZNK5KBlog8BlogPost7summaryEv
libKF5Blog.so.5:_ZNK5KBlog8BlogPost9isPrivateEv
libKF5Blog.so.5:_ZNK5KBlog8BlogPost9journalIdEv
libKF5Blog.so.5:_ZNK5KBlog8BlogPost9permaLinkEv
libKF5Blog.so.5:_ZNK5KBlog8Blogger110metaObjectEv
libKF5Blog.so.5:_ZNK5KBlog8Blogger113interfaceNameEv
libKF5Blog.so.5:_ZNK5KBlog9BlogMedia3urlEv
libKF5Blog.so.5:_ZNK5KBlog9BlogMedia4dataEv
libKF5Blog.so.5:_ZNK5KBlog9BlogMedia4nameEv
libKF5Blog.so.5:_ZNK5KBlog9BlogMedia5errorEv
libKF5Blog.so.5:_ZNK5KBlog9BlogMedia6statusEv
libKF5Blog.so.5:_ZNK5KBlog9BlogMedia8mimetypeEv
